; Function Attrs: mustprogress nofree norecurse nosync nounwind willreturn memory(argmem: read) uwtable
define hidden noundef zeroext i1 @_Z13pj_log_activeP6pj_ctxi(ptr nocapture noundef readonly %0, i32 noundef %1) local_unnamed_addr #2 {
  %3 = getelementptr inbounds i8, ptr %0, i64 36
  %4 = load i32, ptr %3, align 4
  %5 = icmp slt i32 %4, 0
  %6 = getelementptr inbounds i8, ptr %0, i64 32
  %7 = load i32, ptr %6, align 8
  %8 = icmp eq i32 %7, 0
  %or.cond = select i1 %8, i1 %5, i1 false
  br i1 %or.cond, label %11, label %9

9:                                                ; preds = %2
  %spec.select = tail call i32 @llvm.abs.i32(i32 %4, i1 true)
  %10 = icmp sge i32 %spec.select, %1
  br label %11

11:                                               ; preds = %9, %2
  %.0 = phi i1 [ false, %2 ], [ %10, %9 ]
  ret i1 %.0
}